(lp0
cnumpy.core.multiarray
scalar
p1
(cnumpy
dtype
p2
(S'u1'
p3
I0
I1
tp4
Rp5
(I3
S'|'
p6
NNNI-1
I-1
I0
tp7
bS'\x19'
p8
tp9
Rp10
ag1
(g5
S'\t'
p11
tp12
Rp13
ag1
(g5
S'\x10'
p14
tp15
Rp16
ag1
(g5
S'\x0b'
p17
tp18
Rp19
ag1
(g5
g14
tp20
Rp21
ag1
(g5
S'\x08'
p22
tp23
Rp24
ag1
(g5
S'\x18'
p25
tp26
Rp27
ag1
(g5
S'\r'
p28
tp29
Rp30
ag1
(g5
g25
tp31
Rp32
ag1
(g5
S'\x04'
p33
tp34
Rp35
ag1
(g5
g11
tp36
Rp37
ag1
(g5
g25
tp38
Rp39
ag1
(g5
g22
tp40
Rp41
ag1
(g5
g14
tp42
Rp43
ag1
(g5
g28
tp44
Rp45
ag1
(g5
S'\x11'
p46
tp47
Rp48
ag1
(g5
g25
tp49
Rp50
ag1
(g5
S'\x12'
p51
tp52
Rp53
ag1
(g5
S'\x14'
p54
tp55
Rp56
ag1
(g5
g51
tp57
Rp58
ag1
(g5
S'\x07'
p59
tp60
Rp61
ag1
(g5
S'\x05'
p62
tp63
Rp64
ag1
(g5
g46
tp65
Rp66
ag1
(g5
g14
tp67
Rp68
ag1
(g5
S'\x01'
p69
tp70
Rp71
ag1
(g5
S'\x0e'
p72
tp73
Rp74
ag1
(g5
g22
tp75
Rp76
ag1
(g5
S'\x0c'
p77
tp78
Rp79
ag1
(g5
g72
tp80
Rp81
ag1
(g5
g25
tp82
Rp83
ag1
(g5
g25
tp84
Rp85
ag1
(g5
g14
tp86
Rp87
ag1
(g5
S'\x06'
p88
tp89
Rp90
ag1
(g5
g25
tp91
Rp92
ag1
(g5
g22
tp93
Rp94
ag1
(g5
g22
tp95
Rp96
ag1
(g5
g14
tp97
Rp98
ag1
(g5
S'\x13'
p99
tp100
Rp101
ag1
(g5
g51
tp102
Rp103
ag1
(g5
g14
tp104
Rp105
ag1
(g5
g25
tp106
Rp107
ag1
(g5
g17
tp108
Rp109
ag1
(g5
g14
tp110
Rp111
ag1
(g5
g22
tp112
Rp113
ag1
(g5
g25
tp114
Rp115
ag1
(g5
S'\x02'
p116
tp117
Rp118
ag1
(g5
g25
tp119
Rp120
ag1
(g5
g69
tp121
Rp122
ag1
(g5
g51
tp123
Rp124
ag1
(g5
g51
tp125
Rp126
ag1
(g5
g14
tp127
Rp128
ag1
(g5
S'\x17'
p129
tp130
Rp131
ag1
(g5
g22
tp132
Rp133
ag1
(g5
g11
tp134
Rp135
ag1
(g5
g14
tp136
Rp137
ag1
(g5
g51
tp138
Rp139
ag1
(g5
g25
tp140
Rp141
ag1
(g5
S'\x03'
p142
tp143
Rp144
ag1
(g5
g72
tp145
Rp146
ag1
(g5
S'\n'
p147
tp148
Rp149
ag1
(g5
S'\x0f'
p150
tp151
Rp152
ag1
(g5
g129
tp153
Rp154
ag1
(g5
S'\x16'
p155
tp156
Rp157
ag1
(g5
g22
tp158
Rp159
ag1
(g5
g72
tp160
Rp161
ag1
(g5
g54
tp162
Rp163
ag1
(g5
g46
tp164
Rp165
ag1
(g5
g69
tp166
Rp167
ag1
(g5
g51
tp168
Rp169
ag1
(g5
g8
tp170
Rp171
ag1
(g5
g14
tp172
Rp173
ag1
(g5
g51
tp174
Rp175
ag1
(g5
g51
tp176
Rp177
ag1
(g5
g22
tp178
Rp179
ag1
(g5
g59
tp180
Rp181
ag1
(g5
g69
tp182
Rp183
ag1
(g5
g33
tp184
Rp185
ag1
(g5
g99
tp186
Rp187
ag1
(g5
g46
tp188
Rp189
ag1
(g5
g25
tp190
Rp191
ag1
(g5
g14
tp192
Rp193
ag1
(g5
g46
tp194
Rp195
ag1
(g5
g51
tp196
Rp197
ag1
(g5
g14
tp198
Rp199
ag1
(g5
g46
tp200
Rp201
ag1
(g5
g25
tp202
Rp203
ag1
(g5
g51
tp204
Rp205
ag1
(g5
g8
tp206
Rp207
ag1
(g5
g25
tp208
Rp209
ag1
(g5
g155
tp210
Rp211
ag1
(g5
g11
tp212
Rp213
ag1
(g5
g8
tp214
Rp215
ag1
(g5
g25
tp216
Rp217
ag1
(g5
g51
tp218
Rp219
ag1
(g5
g116
tp220
Rp221
ag1
(g5
g77
tp222
Rp223
ag1
(g5
g17
tp224
Rp225
ag1
(g5
g33
tp226
Rp227
ag1
(g5
g46
tp228
Rp229
ag1
(g5
g59
tp230
Rp231
ag1
(g5
g129
tp232
Rp233
ag1
(g5
g22
tp234
Rp235
ag1
(g5
g8
tp236
Rp237
ag1
(g5
g142
tp238
Rp239
ag1
(g5
g25
tp240
Rp241
ag1
(g5
g25
tp242
Rp243
ag1
(g5
g46
tp244
Rp245
ag1
(g5
g17
tp246
Rp247
ag1
(g5
g51
tp248
Rp249
ag1
(g5
g25
tp250
Rp251
ag1
(g5
g51
tp252
Rp253
ag1
(g5
g25
tp254
Rp255
ag1
(g5
g46
tp256
Rp257
ag1
(g5
g116
tp258
Rp259
ag1
(g5
g51
tp260
Rp261
ag1
(g5
g88
tp262
Rp263
ag1
(g5
g59
tp264
Rp265
ag1
(g5
g54
tp266
Rp267
ag1
(g5
g22
tp268
Rp269
ag1
(g5
g14
tp270
Rp271
ag1
(g5
g25
tp272
Rp273
ag1
(g5
g14
tp274
Rp275
ag1
(g5
g25
tp276
Rp277
ag1
(g5
g14
tp278
Rp279
ag1
(g5
g14
tp280
Rp281
ag1
(g5
g14
tp282
Rp283
ag1
(g5
g25
tp284
Rp285
ag1
(g5
g17
tp286
Rp287
ag1
(g5
g33
tp288
Rp289
ag1
(g5
g54
tp290
Rp291
ag1
(g5
g88
tp292
Rp293
ag1
(g5
g88
tp294
Rp295
ag1
(g5
g129
tp296
Rp297
ag1
(g5
g25
tp298
Rp299
ag1
(g5
g51
tp300
Rp301
ag1
(g5
g51
tp302
Rp303
ag1
(g5
g69
tp304
Rp305
ag1
(g5
g46
tp306
Rp307
ag1
(g5
g17
tp308
Rp309
ag1
(g5
g11
tp310
Rp311
ag1
(g5
g25
tp312
Rp313
ag1
(g5
g59
tp314
Rp315
ag1
(g5
g51
tp316
Rp317
ag1
(g5
g46
tp318
Rp319
ag1
(g5
g54
tp320
Rp321
ag1
(g5
g46
tp322
Rp323
ag1
(g5
S'\x15'
p324
tp325
Rp326
ag1
(g5
g25
tp327
Rp328
ag1
(g5
g51
tp329
Rp330
ag1
(g5
g46
tp331
Rp332
ag1
(g5
g14
tp333
Rp334
ag1
(g5
g22
tp335
Rp336
ag1
(g5
g25
tp337
Rp338
ag1
(g5
g54
tp339
Rp340
ag1
(g5
g155
tp341
Rp342
ag1
(g5
g14
tp343
Rp344
ag1
(g5
g129
tp345
Rp346
ag1
(g5
g46
tp347
Rp348
ag1
(g5
g22
tp349
Rp350
ag1
(g5
g11
tp351
Rp352
ag1
(g5
g14
tp353
Rp354
ag1
(g5
g46
tp355
Rp356
ag1
(g5
g22
tp357
Rp358
ag1
(g5
g142
tp359
Rp360
ag1
(g5
g72
tp361
Rp362
ag1
(g5
g14
tp363
Rp364
ag1
(g5
g51
tp365
Rp366
ag1
(g5
g28
tp367
Rp368
ag1
(g5
g33
tp369
Rp370
ag1
(g5
g51
tp371
Rp372
ag1
(g5
g62
tp373
Rp374
ag1
(g5
g46
tp375
Rp376
ag1
(g5
g142
tp377
Rp378
ag1
(g5
g25
tp379
Rp380
ag1
(g5
g46
tp381
Rp382
ag1
(g5
g46
tp383
Rp384
ag1
(g5
g17
tp385
Rp386
ag1
(g5
g14
tp387
Rp388
ag1
(g5
g150
tp389
Rp390
ag1
(g5
g33
tp391
Rp392
ag1
(g5
g25
tp393
Rp394
ag1
(g5
g33
tp395
Rp396
ag1
(g5
g72
tp397
Rp398
ag1
(g5
g155
tp399
Rp400
ag1
(g5
g22
tp401
Rp402
ag1
(g5
g14
tp403
Rp404
ag1
(g5
g54
tp405
Rp406
ag1
(g5
g14
tp407
Rp408
ag1
(g5
g46
tp409
Rp410
ag1
(g5
g46
tp411
Rp412
ag1
(g5
g69
tp413
Rp414
ag1
(g5
g25
tp415
Rp416
ag1
(g5
g22
tp417
Rp418
ag1
(g5
g25
tp419
Rp420
ag1
(g5
g25
tp421
Rp422
ag1
(g5
g142
tp423
Rp424
ag1
(g5
g88
tp425
Rp426
ag1
(g5
g324
tp427
Rp428
ag1
(g5
g324
tp429
Rp430
ag1
(g5
g51
tp431
Rp432
ag1
(g5
g155
tp433
Rp434
ag1
(g5
g14
tp435
Rp436
ag1
(g5
g51
tp437
Rp438
ag1
(g5
g142
tp439
Rp440
ag1
(g5
g25
tp441
Rp442
ag1
(g5
g33
tp443
Rp444
ag1
(g5
g22
tp445
Rp446
ag1
(g5
g142
tp447
Rp448
ag1
(g5
g69
tp449
Rp450
ag1
(g5
g59
tp451
Rp452
ag1
(g5
g17
tp453
Rp454
ag1
(g5
g46
tp455
Rp456
ag1
(g5
g25
tp457
Rp458
ag1
(g5
g11
tp459
Rp460
ag1
(g5
g14
tp461
Rp462
ag1
(g5
g54
tp463
Rp464
ag1
(g5
g142
tp465
Rp466
ag1
(g5
g147
tp467
Rp468
ag1
(g5
g51
tp469
Rp470
ag1
(g5
g33
tp471
Rp472
ag1
(g5
g14
tp473
Rp474
ag1
(g5
g46
tp475
Rp476
ag1
(g5
g324
tp477
Rp478
ag1
(g5
g51
tp479
Rp480
ag1
(g5
g25
tp481
Rp482
ag1
(g5
g14
tp483
Rp484
ag1
(g5
g14
tp485
Rp486
ag1
(g5
g22
tp487
Rp488
ag1
(g5
g324
tp489
Rp490
ag1
(g5
g155
tp491
Rp492
ag1
(g5
g51
tp493
Rp494
ag1
(g5
g88
tp495
Rp496
ag1
(g5
g25
tp497
Rp498
ag1
(g5
g72
tp499
Rp500
ag1
(g5
g14
tp501
Rp502
ag1
(g5
g8
tp503
Rp504
ag1
(g5
g14
tp505
Rp506
ag1
(g5
g25
tp507
Rp508
ag1
(g5
g33
tp509
Rp510
ag1
(g5
g88
tp511
Rp512
ag1
(g5
g142
tp513
Rp514
ag1
(g5
g69
tp515
Rp516
ag1
(g5
g25
tp517
Rp518
ag1
(g5
g59
tp519
Rp520
ag1
(g5
g46
tp521
Rp522
ag1
(g5
g142
tp523
Rp524
ag1
(g5
g69
tp525
Rp526
ag1
(g5
g155
tp527
Rp528
ag1
(g5
g22
tp529
Rp530
ag1
(g5
g25
tp531
Rp532
ag1
(g5
g22
tp533
Rp534
ag1
(g5
g22
tp535
Rp536
ag1
(g5
g33
tp537
Rp538
ag1
(g5
g69
tp539
Rp540
ag1
(g5
g14
tp541
Rp542
ag1
(g5
g46
tp543
Rp544
ag1
(g5
g69
tp545
Rp546
ag1
(g5
g17
tp547
Rp548
ag1
(g5
g25
tp549
Rp550
ag1
(g5
g62
tp551
Rp552
ag1
(g5
g14
tp553
Rp554
ag1
(g5
g46
tp555
Rp556
ag1
(g5
g46
tp557
Rp558
ag1
(g5
g62
tp559
Rp560
ag1
(g5
g99
tp561
Rp562
ag1
(g5
g14
tp563
Rp564
ag1
(g5
g54
tp565
Rp566
ag1
(g5
g14
tp567
Rp568
ag1
(g5
g25
tp569
Rp570
ag1
(g5
g8
tp571
Rp572
ag1
(g5
g72
tp573
Rp574
ag1
(g5
g62
tp575
Rp576
ag1
(g5
g11
tp577
Rp578
ag1
(g5
g51
tp579
Rp580
ag1
(g5
g54
tp581
Rp582
ag1
(g5
g14
tp583
Rp584
ag1
(g5
g142
tp585
Rp586
ag1
(g5
g51
tp587
Rp588
ag1
(g5
g116
tp589
Rp590
ag1
(g5
g25
tp591
Rp592
ag1
(g5
g51
tp593
Rp594
ag1
(g5
g22
tp595
Rp596
ag1
(g5
g77
tp597
Rp598
ag1
(g5
g22
tp599
Rp600
ag1
(g5
g33
tp601
Rp602
ag1
(g5
g324
tp603
Rp604
ag1
(g5
g14
tp605
Rp606
ag1
(g5
g54
tp607
Rp608
ag1
(g5
g99
tp609
Rp610
ag1
(g5
g14
tp611
Rp612
ag1
(g5
g22
tp613
Rp614
ag1
(g5
g33
tp615
Rp616
ag1
(g5
g14
tp617
Rp618
ag1
(g5
g33
tp619
Rp620
ag1
(g5
g8
tp621
Rp622
ag1
(g5
g324
tp623
Rp624
ag1
(g5
g28
tp625
Rp626
ag1
(g5
g8
tp627
Rp628
ag1
(g5
g46
tp629
Rp630
ag1
(g5
g88
tp631
Rp632
ag1
(g5
g62
tp633
Rp634
ag1
(g5
g69
tp635
Rp636
ag1
(g5
g54
tp637
Rp638
ag1
(g5
g14
tp639
Rp640
ag1
(g5
g25
tp641
Rp642
ag1
(g5
g14
tp643
Rp644
ag1
(g5
g22
tp645
Rp646
ag1
(g5
g28
tp647
Rp648
ag1
(g5
g155
tp649
Rp650
ag1
(g5
g33
tp651
Rp652
ag1
(g5
g51
tp653
Rp654
ag1
(g5
g8
tp655
Rp656
ag1
(g5
g28
tp657
Rp658
ag1
(g5
g324
tp659
Rp660
ag1
(g5
g46
tp661
Rp662
ag1
(g5
g147
tp663
Rp664
ag1
(g5
g22
tp665
Rp666
ag1
(g5
g33
tp667
Rp668
ag1
(g5
g150
tp669
Rp670
ag1
(g5
g99
tp671
Rp672
ag1
(g5
g51
tp673
Rp674
ag1
(g5
g46
tp675
Rp676
ag1
(g5
g33
tp677
Rp678
ag1
(g5
g59
tp679
Rp680
ag1
(g5
g54
tp681
Rp682
ag1
(g5
g33
tp683
Rp684
ag1
(g5
g77
tp685
Rp686
ag1
(g5
g46
tp687
Rp688
ag1
(g5
g59
tp689
Rp690
ag1
(g5
g33
tp691
Rp692
ag1
(g5
g51
tp693
Rp694
ag1
(g5
g116
tp695
Rp696
ag1
(g5
g54
tp697
Rp698
ag1
(g5
g17
tp699
Rp700
ag1
(g5
g62
tp701
Rp702
ag1
(g5
g62
tp703
Rp704
ag1
(g5
g22
tp705
Rp706
ag1
(g5
g46
tp707
Rp708
ag1
(g5
g8
tp709
Rp710
ag1
(g5
g14
tp711
Rp712
ag1
(g5
g33
tp713
Rp714
ag1
(g5
g14
tp715
Rp716
ag1
(g5
g25
tp717
Rp718
ag1
(g5
g142
tp719
Rp720
ag1
(g5
g14
tp721
Rp722
ag1
(g5
g54
tp723
Rp724
ag1
(g5
g25
tp725
Rp726
ag1
(g5
g25
tp727
Rp728
ag1
(g5
g51
tp729
Rp730
ag1
(g5
g129
tp731
Rp732
ag1
(g5
g72
tp733
Rp734
ag1
(g5
g25
tp735
Rp736
ag1
(g5
g25
tp737
Rp738
ag1
(g5
g28
tp739
Rp740
ag1
(g5
g54
tp741
Rp742
ag1
(g5
g77
tp743
Rp744
ag1
(g5
g25
tp745
Rp746
ag1
(g5
g25
tp747
Rp748
ag1
(g5
g69
tp749
Rp750
ag1
(g5
g8
tp751
Rp752
ag1
(g5
g25
tp753
Rp754
ag1
(g5
g46
tp755
Rp756
ag1
(g5
g11
tp757
Rp758
ag1
(g5
g22
tp759
Rp760
ag1
(g5
g33
tp761
Rp762
ag1
(g5
g46
tp763
Rp764
ag1
(g5
g59
tp765
Rp766
ag1
(g5
g17
tp767
Rp768
ag1
(g5
g51
tp769
Rp770
ag1
(g5
g25
tp771
Rp772
ag1
(g5
g25
tp773
Rp774
ag1
(g5
g8
tp775
Rp776
ag1
(g5
g22
tp777
Rp778
ag1
(g5
g25
tp779
Rp780
ag1
(g5
g150
tp781
Rp782
ag1
(g5
g51
tp783
Rp784
ag1
(g5
g22
tp785
Rp786
ag1
(g5
g14
tp787
Rp788
ag1
(g5
g22
tp789
Rp790
ag1
(g5
g59
tp791
Rp792
ag1
(g5
g14
tp793
Rp794
ag1
(g5
g14
tp795
Rp796
ag1
(g5
g116
tp797
Rp798
ag1
(g5
g69
tp799
Rp800
ag1
(g5
g46
tp801
Rp802
ag1
(g5
g22
tp803
Rp804
ag1
(g5
g62
tp805
Rp806
ag1
(g5
g22
tp807
Rp808
ag1
(g5
g51
tp809
Rp810
ag1
(g5
g54
tp811
Rp812
ag1
(g5
g14
tp813
Rp814
ag1
(g5
g33
tp815
Rp816
ag1
(g5
g142
tp817
Rp818
ag1
(g5
g14
tp819
Rp820
ag1
(g5
g22
tp821
Rp822
ag1
(g5
g25
tp823
Rp824
ag1
(g5
g22
tp825
Rp826
ag1
(g5
g25
tp827
Rp828
ag1
(g5
g46
tp829
Rp830
ag1
(g5
g22
tp831
Rp832
ag1
(g5
g46
tp833
Rp834
ag1
(g5
g25
tp835
Rp836
ag1
(g5
g129
tp837
Rp838
ag1
(g5
g155
tp839
Rp840
ag1
(g5
g25
tp841
Rp842
ag1
(g5
g54
tp843
Rp844
ag1
(g5
g33
tp845
Rp846
ag1
(g5
g25
tp847
Rp848
ag1
(g5
g46
tp849
Rp850
ag1
(g5
g22
tp851
Rp852
ag1
(g5
g33
tp853
Rp854
ag1
(g5
g72
tp855
Rp856
ag1
(g5
g25
tp857
Rp858
ag1
(g5
g150
tp859
Rp860
ag1
(g5
g142
tp861
Rp862
ag1
(g5
g22
tp863
Rp864
ag1
(g5
g46
tp865
Rp866
ag1
(g5
g22
tp867
Rp868
ag1
(g5
g46
tp869
Rp870
ag1
(g5
g142
tp871
Rp872
ag1
(g5
g54
tp873
Rp874
ag1
(g5
g11
tp875
Rp876
ag1
(g5
g46
tp877
Rp878
ag1
(g5
g142
tp879
Rp880
ag1
(g5
g22
tp881
Rp882
ag1
(g5
g51
tp883
Rp884
ag1
(g5
g22
tp885
Rp886
ag1
(g5
g99
tp887
Rp888
ag1
(g5
g8
tp889
Rp890
ag1
(g5
g25
tp891
Rp892
ag1
(g5
g155
tp893
Rp894
ag1
(g5
g72
tp895
Rp896
ag1
(g5
g150
tp897
Rp898
ag1
(g5
g14
tp899
Rp900
ag1
(g5
g116
tp901
Rp902
ag1
(g5
g59
tp903
Rp904
ag1
(g5
g129
tp905
Rp906
ag1
(g5
g69
tp907
Rp908
ag1
(g5
g62
tp909
Rp910
ag1
(g5
g46
tp911
Rp912
ag1
(g5
g142
tp913
Rp914
ag1
(g5
g155
tp915
Rp916
ag1
(g5
g116
tp917
Rp918
ag1
(g5
g54
tp919
Rp920
ag1
(g5
g324
tp921
Rp922
ag1
(g5
g25
tp923
Rp924
ag1
(g5
g22
tp925
Rp926
ag1
(g5
g142
tp927
Rp928
ag1
(g5
g150
tp929
Rp930
ag1
(g5
g25
tp931
Rp932
ag1
(g5
g155
tp933
Rp934
ag1
(g5
g62
tp935
Rp936
ag1
(g5
g51
tp937
Rp938
ag1
(g5
g25
tp939
Rp940
ag1
(g5
g25
tp941
Rp942
ag1
(g5
g88
tp943
Rp944
ag1
(g5
g46
tp945
Rp946
ag1
(g5
g72
tp947
Rp948
ag1
(g5
g142
tp949
Rp950
ag1
(g5
g62
tp951
Rp952
ag1
(g5
g46
tp953
Rp954
ag1
(g5
g11
tp955
Rp956
ag1
(g5
g62
tp957
Rp958
ag1
(g5
g54
tp959
Rp960
ag1
(g5
g14
tp961
Rp962
ag1
(g5
g142
tp963
Rp964
ag1
(g5
g116
tp965
Rp966
ag1
(g5
g72
tp967
Rp968
ag1
(g5
g11
tp969
Rp970
ag1
(g5
g116
tp971
Rp972
ag1
(g5
g99
tp973
Rp974
ag1
(g5
g142
tp975
Rp976
ag1
(g5
g8
tp977
Rp978
ag1
(g5
g11
tp979
Rp980
ag1
(g5
g14
tp981
Rp982
ag1
(g5
g14
tp983
Rp984
ag1
(g5
g11
tp985
Rp986
ag1
(g5
g22
tp987
Rp988
ag1
(g5
g116
tp989
Rp990
ag1
(g5
g142
tp991
Rp992
ag1
(g5
g14
tp993
Rp994
ag1
(g5
g14
tp995
Rp996
ag1
(g5
g33
tp997
Rp998
ag1
(g5
g22
tp999
Rp1000
ag1
(g5
g51
tp1001
Rp1002
ag1
(g5
g72
tp1003
Rp1004
ag1
(g5
g14
tp1005
Rp1006
ag1
(g5
g33
tp1007
Rp1008
ag1
(g5
g72
tp1009
Rp1010
ag1
(g5
g51
tp1011
Rp1012
ag1
(g5
g46
tp1013
Rp1014
ag1
(g5
g14
tp1015
Rp1016
ag1
(g5
g33
tp1017
Rp1018
ag1
(g5
g22
tp1019
Rp1020
ag1
(g5
g22
tp1021
Rp1022
ag1
(g5
g69
tp1023
Rp1024
ag1
(g5
g28
tp1025
Rp1026
ag1
(g5
g14
tp1027
Rp1028
ag1
(g5
g8
tp1029
Rp1030
ag1
(g5
g129
tp1031
Rp1032
ag1
(g5
g88
tp1033
Rp1034
ag1
(g5
g155
tp1035
Rp1036
ag1
(g5
g25
tp1037
Rp1038
ag1
(g5
g11
tp1039
Rp1040
ag1
(g5
g22
tp1041
Rp1042
ag1
(g5
g54
tp1043
Rp1044
ag1
(g5
g28
tp1045
Rp1046
ag1
(g5
g129
tp1047
Rp1048
ag1
(g5
g116
tp1049
Rp1050
ag1
(g5
g46
tp1051
Rp1052
ag1
(g5
g72
tp1053
Rp1054
ag1
(g5
g14
tp1055
Rp1056
ag1
(g5
g324
tp1057
Rp1058
ag1
(g5
g46
tp1059
Rp1060
ag1
(g5
g22
tp1061
Rp1062
ag1
(g5
g51
tp1063
Rp1064
ag1
(g5
g17
tp1065
Rp1066
ag1
(g5
g54
tp1067
Rp1068
ag1
(g5
g142
tp1069
Rp1070
ag1
(g5
g46
tp1071
Rp1072
ag1
(g5
g51
tp1073
Rp1074
ag1
(g5
g11
tp1075
Rp1076
ag1
(g5
g22
tp1077
Rp1078
ag1
(g5
g25
tp1079
Rp1080
ag1
(g5
g22
tp1081
Rp1082
ag1
(g5
g22
tp1083
Rp1084
ag1
(g5
g8
tp1085
Rp1086
ag1
(g5
g25
tp1087
Rp1088
ag1
(g5
g22
tp1089
Rp1090
ag1
(g5
g33
tp1091
Rp1092
ag1
(g5
g17
tp1093
Rp1094
ag1
(g5
g14
tp1095
Rp1096
ag1
(g5
g88
tp1097
Rp1098
ag1
(g5
g51
tp1099
Rp1100
ag1
(g5
g46
tp1101
Rp1102
ag1
(g5
g324
tp1103
Rp1104
ag1
(g5
g11
tp1105
Rp1106
ag1
(g5
g142
tp1107
Rp1108
ag1
(g5
g22
tp1109
Rp1110
ag1
(g5
g150
tp1111
Rp1112
ag1
(g5
g8
tp1113
Rp1114
ag1
(g5
g324
tp1115
Rp1116
ag1
(g5
g72
tp1117
Rp1118
ag1
(g5
g25
tp1119
Rp1120
ag1
(g5
g155
tp1121
Rp1122
ag1
(g5
g22
tp1123
Rp1124
ag1
(g5
g33
tp1125
Rp1126
ag1
(g5
g51
tp1127
Rp1128
ag1
(g5
g17
tp1129
Rp1130
ag1
(g5
g147
tp1131
Rp1132
ag1
(g5
g11
tp1133
Rp1134
ag1
(g5
g25
tp1135
Rp1136
ag1
(g5
g22
tp1137
Rp1138
ag1
(g5
g51
tp1139
Rp1140
ag1
(g5
g22
tp1141
Rp1142
ag1
(g5
g25
tp1143
Rp1144
ag1
(g5
g59
tp1145
Rp1146
ag1
(g5
g142
tp1147
Rp1148
ag1
(g5
g17
tp1149
Rp1150
ag1
(g5
g116
tp1151
Rp1152
ag1
(g5
g25
tp1153
Rp1154
ag1
(g5
g22
tp1155
Rp1156
ag1
(g5
g51
tp1157
Rp1158
ag1
(g5
g11
tp1159
Rp1160
ag1
(g5
g46
tp1161
Rp1162
ag1
(g5
g69
tp1163
Rp1164
ag1
(g5
g77
tp1165
Rp1166
ag1
(g5
g11
tp1167
Rp1168
ag1
(g5
g22
tp1169
Rp1170
ag1
(g5
g51
tp1171
Rp1172
ag1
(g5
g46
tp1173
Rp1174
ag1
(g5
g8
tp1175
Rp1176
ag1
(g5
g11
tp1177
Rp1178
ag1
(g5
g46
tp1179
Rp1180
ag1
(g5
g22
tp1181
Rp1182
ag1
(g5
g17
tp1183
Rp1184
ag1
(g5
g22
tp1185
Rp1186
ag1
(g5
g11
tp1187
Rp1188
ag1
(g5
g116
tp1189
Rp1190
ag1
(g5
g14
tp1191
Rp1192
ag1
(g5
g142
tp1193
Rp1194
ag1
(g5
g25
tp1195
Rp1196
ag1
(g5
g51
tp1197
Rp1198
ag1
(g5
g46
tp1199
Rp1200
ag1
(g5
g25
tp1201
Rp1202
ag1
(g5
g59
tp1203
Rp1204
ag1
(g5
g51
tp1205
Rp1206
ag1
(g5
g14
tp1207
Rp1208
ag1
(g5
g46
tp1209
Rp1210
ag1
(g5
g46
tp1211
Rp1212
ag1
(g5
g46
tp1213
Rp1214
ag1
(g5
g46
tp1215
Rp1216
ag1
(g5
g69
tp1217
Rp1218
ag1
(g5
g8
tp1219
Rp1220
ag1
(g5
g22
tp1221
Rp1222
ag1
(g5
g46
tp1223
Rp1224
ag1
(g5
g54
tp1225
Rp1226
ag1
(g5
g99
tp1227
Rp1228
ag1
(g5
g8
tp1229
Rp1230
ag1
(g5
g54
tp1231
Rp1232
ag1
(g5
g33
tp1233
Rp1234
ag1
(g5
g88
tp1235
Rp1236
ag1
(g5
g25
tp1237
Rp1238
ag1
(g5
g54
tp1239
Rp1240
ag1
(g5
g22
tp1241
Rp1242
ag1
(g5
g22
tp1243
Rp1244
ag1
(g5
g25
tp1245
Rp1246
ag1
(g5
g142
tp1247
Rp1248
ag1
(g5
g54
tp1249
Rp1250
ag1
(g5
g25
tp1251
Rp1252
ag1
(g5
g72
tp1253
Rp1254
ag1
(g5
g22
tp1255
Rp1256
ag1
(g5
g59
tp1257
Rp1258
ag1
(g5
g14
tp1259
Rp1260
ag1
(g5
g155
tp1261
Rp1262
ag1
(g5
g150
tp1263
Rp1264
ag1
(g5
g46
tp1265
Rp1266
ag1
(g5
g11
tp1267
Rp1268
ag1
(g5
g324
tp1269
Rp1270
ag1
(g5
g33
tp1271
Rp1272
ag1
(g5
g324
tp1273
Rp1274
ag1
(g5
g116
tp1275
Rp1276
ag1
(g5
g14
tp1277
Rp1278
ag1
(g5
g46
tp1279
Rp1280
ag1
(g5
g99
tp1281
Rp1282
ag1
(g5
g14
tp1283
Rp1284
ag1
(g5
g22
tp1285
Rp1286
ag1
(g5
g46
tp1287
Rp1288
ag1
(g5
g46
tp1289
Rp1290
ag1
(g5
g46
tp1291
Rp1292
ag1
(g5
g28
tp1293
Rp1294
ag1
(g5
g51
tp1295
Rp1296
ag1
(g5
g22
tp1297
Rp1298
ag1
(g5
g33
tp1299
Rp1300
ag1
(g5
g116
tp1301
Rp1302
ag1
(g5
g51
tp1303
Rp1304
ag1
(g5
g62
tp1305
Rp1306
ag1
(g5
g17
tp1307
Rp1308
ag1
(g5
g46
tp1309
Rp1310
ag1
(g5
g324
tp1311
Rp1312
ag1
(g5
g25
tp1313
Rp1314
ag1
(g5
g147
tp1315
Rp1316
ag1
(g5
g46
tp1317
Rp1318
ag1
(g5
g25
tp1319
Rp1320
ag1
(g5
g14
tp1321
Rp1322
ag1
(g5
g88
tp1323
Rp1324
ag1
(g5
g59
tp1325
Rp1326
ag1
(g5
g72
tp1327
Rp1328
ag1
(g5
g54
tp1329
Rp1330
ag1
(g5
g88
tp1331
Rp1332
ag1
(g5
g33
tp1333
Rp1334
ag1
(g5
g25
tp1335
Rp1336
ag1
(g5
g54
tp1337
Rp1338
ag1
(g5
g59
tp1339
Rp1340
ag1
(g5
g46
tp1341
Rp1342
ag1
(g5
g28
tp1343
Rp1344
ag1
(g5
g324
tp1345
Rp1346
ag1
(g5
g17
tp1347
Rp1348
ag1
(g5
g116
tp1349
Rp1350
ag1
(g5
g142
tp1351
Rp1352
ag1
(g5
g46
tp1353
Rp1354
ag1
(g5
g11
tp1355
Rp1356
ag1
(g5
g25
tp1357
Rp1358
ag1
(g5
g25
tp1359
Rp1360
ag1
(g5
g14
tp1361
Rp1362
ag1
(g5
g116
tp1363
Rp1364
ag1
(g5
g25
tp1365
Rp1366
ag1
(g5
g142
tp1367
Rp1368
ag1
(g5
g155
tp1369
Rp1370
ag1
(g5
g99
tp1371
Rp1372
ag1
(g5
g14
tp1373
Rp1374
ag1
(g5
g99
tp1375
Rp1376
ag1
(g5
g129
tp1377
Rp1378
ag1
(g5
g142
tp1379
Rp1380
ag1
(g5
g129
tp1381
Rp1382
ag1
(g5
g54
tp1383
Rp1384
ag1
(g5
g116
tp1385
Rp1386
ag1
(g5
g8
tp1387
Rp1388
ag1
(g5
g142
tp1389
Rp1390
ag1
(g5
g8
tp1391
Rp1392
ag1
(g5
g28
tp1393
Rp1394
ag1
(g5
g46
tp1395
Rp1396
ag1
(g5
g22
tp1397
Rp1398
ag1
(g5
g17
tp1399
Rp1400
ag1
(g5
g77
tp1401
Rp1402
ag1
(g5
g8
tp1403
Rp1404
ag1
(g5
g25
tp1405
Rp1406
ag1
(g5
g8
tp1407
Rp1408
ag1
(g5
g25
tp1409
Rp1410
ag1
(g5
g116
tp1411
Rp1412
ag1
(g5
g14
tp1413
Rp1414
ag1
(g5
g8
tp1415
Rp1416
ag1
(g5
g33
tp1417
Rp1418
ag1
(g5
g62
tp1419
Rp1420
ag1
(g5
g14
tp1421
Rp1422
ag1
(g5
g129
tp1423
Rp1424
ag1
(g5
g22
tp1425
Rp1426
ag1
(g5
g46
tp1427
Rp1428
ag1
(g5
g14
tp1429
Rp1430
ag1
(g5
g14
tp1431
Rp1432
ag1
(g5
g14
tp1433
Rp1434
ag1
(g5
g22
tp1435
Rp1436
ag1
(g5
g22
tp1437
Rp1438
ag1
(g5
g51
tp1439
Rp1440
ag1
(g5
g142
tp1441
Rp1442
ag1
(g5
g116
tp1443
Rp1444
ag1
(g5
g62
tp1445
Rp1446
ag1
(g5
g33
tp1447
Rp1448
ag1
(g5
g14
tp1449
Rp1450
ag1
(g5
g46
tp1451
Rp1452
ag1
(g5
g25
tp1453
Rp1454
ag1
(g5
g46
tp1455
Rp1456
ag1
(g5
g22
tp1457
Rp1458
ag1
(g5
g51
tp1459
Rp1460
ag1
(g5
g46
tp1461
Rp1462
ag1
(g5
g25
tp1463
Rp1464
ag1
(g5
g147
tp1465
Rp1466
ag1
(g5
g51
tp1467
Rp1468
ag1
(g5
g72
tp1469
Rp1470
ag1
(g5
g116
tp1471
Rp1472
ag1
(g5
g25
tp1473
Rp1474
ag1
(g5
g54
tp1475
Rp1476
ag1
(g5
g8
tp1477
Rp1478
ag1
(g5
g25
tp1479
Rp1480
ag1
(g5
g22
tp1481
Rp1482
ag1
(g5
g33
tp1483
Rp1484
ag1
(g5
g147
tp1485
Rp1486
ag1
(g5
g22
tp1487
Rp1488
ag1
(g5
g46
tp1489
Rp1490
ag1
(g5
g69
tp1491
Rp1492
ag1
(g5
g59
tp1493
Rp1494
ag1
(g5
g17
tp1495
Rp1496
ag1
(g5
g54
tp1497
Rp1498
ag1
(g5
g11
tp1499
Rp1500
ag1
(g5
g17
tp1501
Rp1502
ag1
(g5
g69
tp1503
Rp1504
ag1
(g5
g88
tp1505
Rp1506
ag1
(g5
g142
tp1507
Rp1508
ag1
(g5
g129
tp1509
Rp1510
ag1
(g5
g72
tp1511
Rp1512
ag1
(g5
g150
tp1513
Rp1514
ag1
(g5
g25
tp1515
Rp1516
ag1
(g5
g11
tp1517
Rp1518
ag1
(g5
g8
tp1519
Rp1520
ag1
(g5
g14
tp1521
Rp1522
ag1
(g5
g142
tp1523
Rp1524
ag1
(g5
g142
tp1525
Rp1526
ag1
(g5
g25
tp1527
Rp1528
ag1
(g5
g155
tp1529
Rp1530
ag1
(g5
g72
tp1531
Rp1532
ag1
(g5
g14
tp1533
Rp1534
ag1
(g5
g72
tp1535
Rp1536
ag1
(g5
g62
tp1537
Rp1538
ag1
(g5
g69
tp1539
Rp1540
ag1
(g5
g142
tp1541
Rp1542
ag1
(g5
g46
tp1543
Rp1544
ag1
(g5
g54
tp1545
Rp1546
ag1
(g5
g59
tp1547
Rp1548
ag1
(g5
g142
tp1549
Rp1550
ag1
(g5
g14
tp1551
Rp1552
ag1
(g5
g142
tp1553
Rp1554
ag1
(g5
g54
tp1555
Rp1556
ag1
(g5
g142
tp1557
Rp1558
ag1
(g5
g11
tp1559
Rp1560
ag1
(g5
g22
tp1561
Rp1562
ag1
(g5
g33
tp1563
Rp1564
ag1
(g5
g22
tp1565
Rp1566
ag1
(g5
g142
tp1567
Rp1568
ag1
(g5
g116
tp1569
Rp1570
ag1
(g5
g46
tp1571
Rp1572
ag1
(g5
g22
tp1573
Rp1574
ag1
(g5
g11
tp1575
Rp1576
ag1
(g5
g54
tp1577
Rp1578
ag1
(g5
g54
tp1579
Rp1580
ag1
(g5
g25
tp1581
Rp1582
ag1
(g5
g25
tp1583
Rp1584
ag1
(g5
g51
tp1585
Rp1586
ag1
(g5
g62
tp1587
Rp1588
ag1
(g5
g51
tp1589
Rp1590
ag1
(g5
g33
tp1591
Rp1592
ag1
(g5
g33
tp1593
Rp1594
ag1
(g5
g51
tp1595
Rp1596
ag1
(g5
g28
tp1597
Rp1598
ag1
(g5
g54
tp1599
Rp1600
ag1
(g5
g88
tp1601
Rp1602
ag1
(g5
g142
tp1603
Rp1604
ag1
(g5
g25
tp1605
Rp1606
ag1
(g5
g25
tp1607
Rp1608
ag1
(g5
g62
tp1609
Rp1610
ag1
(g5
g155
tp1611
Rp1612
ag1
(g5
g88
tp1613
Rp1614
ag1
(g5
g46
tp1615
Rp1616
ag1
(g5
g54
tp1617
Rp1618
ag1
(g5
g25
tp1619
Rp1620
ag1
(g5
g46
tp1621
Rp1622
ag1
(g5
g46
tp1623
Rp1624
ag1
(g5
g99
tp1625
Rp1626
ag1
(g5
g116
tp1627
Rp1628
ag1
(g5
g22
tp1629
Rp1630
ag1
(g5
g142
tp1631
Rp1632
ag1
(g5
g142
tp1633
Rp1634
ag1
(g5
g11
tp1635
Rp1636
ag1
(g5
g142
tp1637
Rp1638
ag1
(g5
g46
tp1639
Rp1640
ag1
(g5
g62
tp1641
Rp1642
ag1
(g5
g33
tp1643
Rp1644
ag1
(g5
g142
tp1645
Rp1646
ag1
(g5
g99
tp1647
Rp1648
ag1
(g5
g116
tp1649
Rp1650
ag1
(g5
g142
tp1651
Rp1652
ag1
(g5
g14
tp1653
Rp1654
ag1
(g5
g142
tp1655
Rp1656
ag1
(g5
g51
tp1657
Rp1658
ag1
(g5
g8
tp1659
Rp1660
ag1
(g5
g17
tp1661
Rp1662
ag1
(g5
g69
tp1663
Rp1664
ag1
(g5
g33
tp1665
Rp1666
ag1
(g5
g33
tp1667
Rp1668
ag1
(g5
g11
tp1669
Rp1670
ag1
(g5
g142
tp1671
Rp1672
ag1
(g5
g25
tp1673
Rp1674
ag1
(g5
g142
tp1675
Rp1676
ag1
(g5
g51
tp1677
Rp1678
ag1
(g5
g33
tp1679
Rp1680
ag1
(g5
g59
tp1681
Rp1682
ag1
(g5
g59
tp1683
Rp1684
ag1
(g5
g33
tp1685
Rp1686
ag1
(g5
g46
tp1687
Rp1688
ag1
(g5
g22
tp1689
Rp1690
ag1
(g5
g25
tp1691
Rp1692
ag1
(g5
g99
tp1693
Rp1694
ag1
(g5
g14
tp1695
Rp1696
ag1
(g5
g46
tp1697
Rp1698
ag1
(g5
g25
tp1699
Rp1700
ag1
(g5
g46
tp1701
Rp1702
ag1
(g5
g116
tp1703
Rp1704
ag1
(g5
g25
tp1705
Rp1706
ag1
(g5
g69
tp1707
Rp1708
ag1
(g5
g51
tp1709
Rp1710
ag1
(g5
g72
tp1711
Rp1712
ag1
(g5
g116
tp1713
Rp1714
ag1
(g5
g51
tp1715
Rp1716
ag1
(g5
g51
tp1717
Rp1718
ag1
(g5
g25
tp1719
Rp1720
ag1
(g5
g28
tp1721
Rp1722
ag1
(g5
g33
tp1723
Rp1724
ag1
(g5
g142
tp1725
Rp1726
ag1
(g5
g324
tp1727
Rp1728
ag1
(g5
g142
tp1729
Rp1730
ag1
(g5
g142
tp1731
Rp1732
ag1
(g5
g72
tp1733
Rp1734
ag1
(g5
g25
tp1735
Rp1736
ag1
(g5
g11
tp1737
Rp1738
ag1
(g5
g17
tp1739
Rp1740
ag1
(g5
g25
tp1741
Rp1742
ag1
(g5
g25
tp1743
Rp1744
ag1
(g5
g46
tp1745
Rp1746
ag1
(g5
g69
tp1747
Rp1748
ag1
(g5
g142
tp1749
Rp1750
ag1
(g5
g46
tp1751
Rp1752
ag1
(g5
g14
tp1753
Rp1754
ag1
(g5
g11
tp1755
Rp1756
ag1
(g5
g25
tp1757
Rp1758
ag1
(g5
g25
tp1759
Rp1760
ag1
(g5
g14
tp1761
Rp1762
ag1
(g5
g22
tp1763
Rp1764
ag1
(g5
g46
tp1765
Rp1766
ag1
(g5
g69
tp1767
Rp1768
ag1
(g5
g62
tp1769
Rp1770
ag1
(g5
g25
tp1771
Rp1772
ag1
(g5
g72
tp1773
Rp1774
ag1
(g5
g14
tp1775
Rp1776
ag1
(g5
g51
tp1777
Rp1778
ag1
(g5
g14
tp1779
Rp1780
ag1
(g5
g142
tp1781
Rp1782
ag1
(g5
g14
tp1783
Rp1784
ag1
(g5
g33
tp1785
Rp1786
ag1
(g5
g25
tp1787
Rp1788
ag1
(g5
g69
tp1789
Rp1790
ag1
(g5
g51
tp1791
Rp1792
ag1
(g5
g14
tp1793
Rp1794
ag1
(g5
g25
tp1795
Rp1796
ag1
(g5
g116
tp1797
Rp1798
ag1
(g5
g8
tp1799
Rp1800
ag1
(g5
g54
tp1801
Rp1802
ag1
(g5
g33
tp1803
Rp1804
ag1
(g5
g69
tp1805
Rp1806
ag1
(g5
g51
tp1807
Rp1808
ag1
(g5
g324
tp1809
Rp1810
ag1
(g5
g17
tp1811
Rp1812
ag1
(g5
g129
tp1813
Rp1814
ag1
(g5
g99
tp1815
Rp1816
ag1
(g5
g99
tp1817
Rp1818
ag1
(g5
g46
tp1819
Rp1820
ag1
(g5
g46
tp1821
Rp1822
ag1
(g5
g25
tp1823
Rp1824
ag1
(g5
g8
tp1825
Rp1826
ag1
(g5
g14
tp1827
Rp1828
ag1
(g5
g51
tp1829
Rp1830
ag1
(g5
g17
tp1831
Rp1832
ag1
(g5
g22
tp1833
Rp1834
ag1
(g5
g14
tp1835
Rp1836
ag1
(g5
g69
tp1837
Rp1838
ag1
(g5
g22
tp1839
Rp1840
ag1
(g5
g11
tp1841
Rp1842
ag1
(g5
g54
tp1843
Rp1844
ag1
(g5
g46
tp1845
Rp1846
ag1
(g5
g51
tp1847
Rp1848
ag1
(g5
g88
tp1849
Rp1850
ag1
(g5
g33
tp1851
Rp1852
ag1
(g5
g54
tp1853
Rp1854
ag1
(g5
g22
tp1855
Rp1856
ag1
(g5
g142
tp1857
Rp1858
ag1
(g5
g11
tp1859
Rp1860
ag1
(g5
g14
tp1861
Rp1862
ag1
(g5
g59
tp1863
Rp1864
ag1
(g5
g51
tp1865
Rp1866
ag1
(g5
g129
tp1867
Rp1868
ag1
(g5
g72
tp1869
Rp1870
ag1
(g5
g142
tp1871
Rp1872
ag1
(g5
g142
tp1873
Rp1874
ag1
(g5
g25
tp1875
Rp1876
ag1
(g5
g22
tp1877
Rp1878
ag1
(g5
g22
tp1879
Rp1880
ag1
(g5
g25
tp1881
Rp1882
ag1
(g5
g77
tp1883
Rp1884
ag1
(g5
g28
tp1885
Rp1886
ag1
(g5
g116
tp1887
Rp1888
ag1
(g5
g59
tp1889
Rp1890
ag1
(g5
g142
tp1891
Rp1892
ag1
(g5
g142
tp1893
Rp1894
ag1
(g5
g11
tp1895
Rp1896
ag1
(g5
g62
tp1897
Rp1898
ag1
(g5
g14
tp1899
Rp1900
ag1
(g5
g116
tp1901
Rp1902
ag1
(g5
g147
tp1903
Rp1904
ag1
(g5
g46
tp1905
Rp1906
ag1
(g5
g69
tp1907
Rp1908
ag1
(g5
g25
tp1909
Rp1910
ag1
(g5
g11
tp1911
Rp1912
ag1
(g5
g51
tp1913
Rp1914
ag1
(g5
g150
tp1915
Rp1916
ag1
(g5
g59
tp1917
Rp1918
ag1
(g5
g72
tp1919
Rp1920
ag1
(g5
g22
tp1921
Rp1922
ag1
(g5
g54
tp1923
Rp1924
ag1
(g5
g88
tp1925
Rp1926
ag1
(g5
g142
tp1927
Rp1928
ag1
(g5
g14
tp1929
Rp1930
ag1
(g5
g62
tp1931
Rp1932
ag1
(g5
g147
tp1933
Rp1934
ag1
(g5
g22
tp1935
Rp1936
ag1
(g5
g77
tp1937
Rp1938
ag1
(g5
g116
tp1939
Rp1940
ag1
(g5
g25
tp1941
Rp1942
ag1
(g5
g22
tp1943
Rp1944
ag1
(g5
g25
tp1945
Rp1946
ag1
(g5
g46
tp1947
Rp1948
ag1
(g5
g46
tp1949
Rp1950
ag1
(g5
g46
tp1951
Rp1952
ag1
(g5
g46
tp1953
Rp1954
ag1
(g5
g25
tp1955
Rp1956
ag1
(g5
g22
tp1957
Rp1958
ag1
(g5
g14
tp1959
Rp1960
ag1
(g5
g33
tp1961
Rp1962
ag1
(g5
g150
tp1963
Rp1964
ag1
(g5
g150
tp1965
Rp1966
ag1
(g5
g17
tp1967
Rp1968
ag1
(g5
g25
tp1969
Rp1970
ag1
(g5
g14
tp1971
Rp1972
ag1
(g5
g22
tp1973
Rp1974
ag1
(g5
g25
tp1975
Rp1976
ag1
(g5
g28
tp1977
Rp1978
ag1
(g5
g46
tp1979
Rp1980
ag1
(g5
g59
tp1981
Rp1982
ag1
(g5
g54
tp1983
Rp1984
ag1
(g5
g14
tp1985
Rp1986
ag1
(g5
g33
tp1987
Rp1988
ag1
(g5
g11
tp1989
Rp1990
ag1
(g5
g69
tp1991
Rp1992
ag1
(g5
g99
tp1993
Rp1994
ag1
(g5
g88
tp1995
Rp1996
ag1
(g5
g59
tp1997
Rp1998
ag1
(g5
g54
tp1999
Rp2000
ag1
(g5
g324
tp2001
Rp2002
ag1
(g5
g51
tp2003
Rp2004
ag1
(g5
g142
tp2005
Rp2006
ag1
(g5
g88
tp2007
Rp2008
ag1
(g5
g72
tp2009
Rp2010
ag1
(g5
g22
tp2011
Rp2012
ag1
(g5
g51
tp2013
Rp2014
ag1
(g5
g22
tp2015
Rp2016
ag1
(g5
g8
tp2017
Rp2018
ag1
(g5
g51
tp2019
Rp2020
ag1
(g5
g14
tp2021
Rp2022
ag1
(g5
g14
tp2023
Rp2024
ag1
(g5
g51
tp2025
Rp2026
ag1
(g5
g25
tp2027
Rp2028
ag1
(g5
g69
tp2029
Rp2030
ag1
(g5
g46
tp2031
Rp2032
ag1
(g5
g116
tp2033
Rp2034
ag1
(g5
g11
tp2035
Rp2036
ag1
(g5
g116
tp2037
Rp2038
ag1
(g5
g33
tp2039
Rp2040
ag1
(g5
g25
tp2041
Rp2042
ag1
(g5
g22
tp2043
Rp2044
ag1
(g5
g14
tp2045
Rp2046
ag1
(g5
g88
tp2047
Rp2048
ag1
(g5
g142
tp2049
Rp2050
ag1
(g5
g33
tp2051
Rp2052
ag1
(g5
g8
tp2053
Rp2054
ag1
(g5
g46
tp2055
Rp2056
ag1
(g5
g14
tp2057
Rp2058
ag1
(g5
g25
tp2059
Rp2060
ag1
(g5
g62
tp2061
Rp2062
ag1
(g5
g147
tp2063
Rp2064
ag1
(g5
g14
tp2065
Rp2066
ag1
(g5
g142
tp2067
Rp2068
ag1
(g5
g142
tp2069
Rp2070
ag1
(g5
g69
tp2071
Rp2072
ag1
(g5
g69
tp2073
Rp2074
a.